; Function Attrs: nounwind uwtable
define ptr @l_ST_Ref_toMonadStateOf___elambda__2___rarg(ptr noundef %0, ptr readnone captures(none) %1, ptr noundef %2, ptr noundef %3) #1 {
  tail call void @lean_inc_heartbeat() #5
  %5 = tail call noalias ptr @mi_malloc_small(i64 noundef 56) #5
  %6 = icmp eq ptr %5, null
  br i1 %6, label %7, label %lean_alloc_closure.exit

7:                                                ; preds = %4
  tail call void @lean_internal_panic_out_of_memory() #6
  unreachable

lean_alloc_closure.exit:                          ; preds = %4
  %8 = getelementptr inbounds nuw i8, ptr %5, i64 4
  store i32 1, ptr %5, align 4, !tbaa !8
  store i32 -184549320, ptr %8, align 4
  %9 = getelementptr inbounds nuw i8, ptr %5, i64 8
  store ptr @l_ST_Prim_Ref_set___boxed, ptr %9, align 8, !tbaa !4
  %10 = getelementptr inbounds nuw i8, ptr %5, i64 16
  store i16 5, ptr %10, align 8, !tbaa !11
  %11 = getelementptr inbounds nuw i8, ptr %5, i64 18
  store i16 4, ptr %11, align 2, !tbaa !11
  %12 = getelementptr inbounds nuw i8, ptr %5, i64 24
  store ptr inttoptr (i64 1 to ptr), ptr %12, align 8, !tbaa !4
  %13 = getelementptr inbounds nuw i8, ptr %5, i64 32
  store ptr inttoptr (i64 1 to ptr), ptr %13, align 8, !tbaa !4
  %14 = getelementptr inbounds nuw i8, ptr %5, i64 40
  store ptr %2, ptr %14, align 8, !tbaa !4
  %15 = getelementptr inbounds nuw i8, ptr %5, i64 48
  store ptr %3, ptr %15, align 8, !tbaa !4
  %16 = tail call ptr @lean_apply_2(ptr noundef %0, ptr noundef nonnull inttoptr (i64 1 to ptr), ptr noundef nonnull %5) #5
  ret ptr %16
}